
unaligned_rw_arm:     file format elf32-littlearm


Disassembly of section .init:

000082b8 <_init>:
    82b8:	e92d4010 	push	{r4, lr}
    82bc:	eb00001f 	bl	8340 <call_gmon_start>
    82c0:	e8bd8010 	pop	{r4, pc}

Disassembly of section .plt:

000082c4 <.plt>:
    82c4:	e52de004 	push	{lr}		; (str lr, [sp, #-4]!)
    82c8:	e59fe004 	ldr	lr, [pc, #4]	; 82d4 <_init+0x1c>
    82cc:	e08fe00e 	add	lr, pc, lr
    82d0:	e5bef008 	ldr	pc, [lr, #8]!
    82d4:	00008d2c 	.word	0x00008d2c
    82d8:	e28fc600 	add	ip, pc, #0	; 0x0
    82dc:	e28cca08 	add	ip, ip, #32768	; 0x8000
    82e0:	e5bcfd2c 	ldr	pc, [ip, #3372]!
    82e4:	e28fc600 	add	ip, pc, #0	; 0x0
    82e8:	e28cca08 	add	ip, ip, #32768	; 0x8000
    82ec:	e5bcfd24 	ldr	pc, [ip, #3364]!
    82f0:	e28fc600 	add	ip, pc, #0	; 0x0
    82f4:	e28cca08 	add	ip, ip, #32768	; 0x8000
    82f8:	e5bcfd1c 	ldr	pc, [ip, #3356]!
    82fc:	e28fc600 	add	ip, pc, #0	; 0x0
    8300:	e28cca08 	add	ip, ip, #32768	; 0x8000
    8304:	e5bcfd14 	ldr	pc, [ip, #3348]!

Disassembly of section .text:

00008308 <_start>:
    8308:	e59fc024 	ldr	ip, [pc, #36]	; 8334 <_start+0x2c>
    830c:	e3a0b000 	mov	fp, #0	; 0x0
    8310:	e49d1004 	pop	{r1}		; (ldr r1, [sp], #4)
    8314:	e1a0200d 	mov	r2, sp
    8318:	e52d2004 	push	{r2}		; (str r2, [sp, #-4]!)
    831c:	e52d0004 	push	{r0}		; (str r0, [sp, #-4]!)
    8320:	e59f0010 	ldr	r0, [pc, #16]	; 8338 <_start+0x30>
    8324:	e59f3010 	ldr	r3, [pc, #16]	; 833c <_start+0x34>
    8328:	e52dc004 	push	{ip}		; (str ip, [sp, #-4]!)
    832c:	ebffffec 	bl	82e4 <_init+0x2c>
    8330:	ebffffe8 	bl	82d8 <_init+0x20>
    8334:	00008480 	.word	0x00008480
    8338:	000083b0 	.word	0x000083b0
    833c:	00008484 	.word	0x00008484

00008340 <call_gmon_start>:
    8340:	e59f3014 	ldr	r3, [pc, #20]	; 835c <call_gmon_start+0x1c>
    8344:	e59f2014 	ldr	r2, [pc, #20]	; 8360 <call_gmon_start+0x20>
    8348:	e08f3003 	add	r3, pc, r3
    834c:	e7932002 	ldr	r2, [r3, r2]
    8350:	e3520000 	cmp	r2, #0	; 0x0
    8354:	012fff1e 	bxeq	lr
    8358:	eaffffe4 	b	82f0 <_init+0x38>
    835c:	00008cb0 	.word	0x00008cb0
    8360:	0000001c 	.word	0x0000001c

00008364 <__do_global_dtors_aux>:
    8364:	e59f3010 	ldr	r3, [pc, #16]	; 837c <__do_global_dtors_aux+0x18>
    8368:	e5d32000 	ldrb	r2, [r3]
    836c:	e3520000 	cmp	r2, #0	; 0x0
    8370:	02822001 	addeq	r2, r2, #1	; 0x1
    8374:	05c32000 	strbeq	r2, [r3]
    8378:	e12fff1e 	bx	lr
    837c:	00011028 	.word	0x00011028

00008380 <frame_dummy>:
    8380:	e59f0020 	ldr	r0, [pc, #32]	; 83a8 <frame_dummy+0x28>
    8384:	e92d4010 	push	{r4, lr}
    8388:	e5903000 	ldr	r3, [r0]
    838c:	e3530000 	cmp	r3, #0	; 0x0
    8390:	08bd8010 	popeq	{r4, pc}
    8394:	e59f3010 	ldr	r3, [pc, #16]	; 83ac <frame_dummy+0x2c>
    8398:	e3530000 	cmp	r3, #0	; 0x0
    839c:	08bd8010 	popeq	{r4, pc}
    83a0:	e12fff33 	blx	r3
    83a4:	e8bd8010 	pop	{r4, pc}
    83a8:	00010f14 	.word	0x00010f14
    83ac:	00000000 	.word	0x00000000

000083b0 <main>:
    83b0:	e1a0c00d 	mov	ip, sp
    83b4:	e92dd800 	push	{fp, ip, lr, pc}
    83b8:	e24cb004 	sub	fp, ip, #4	; 0x4
    83bc:	e24dd010 	sub	sp, sp, #16	; 0x10
    83c0:	e3a03000 	mov	r3, #0	; 0x0
    83c4:	e50b3018 	str	r3, [fp, #-24]
    83c8:	e3a03000 	mov	r3, #0	; 0x0
    83cc:	e50b3014 	str	r3, [fp, #-20]
    83d0:	e24b3018 	sub	r3, fp, #24	; 0x18
    83d4:	e2833001 	add	r3, r3, #1	; 0x1
    83d8:	e50b3010 	str	r3, [fp, #-16]
    83dc:	e59f3080 	ldr	r3, [pc, #128]	; 8464 <main+0xb4>
    83e0:	e50b3018 	str	r3, [fp, #-24]
    83e4:	e51b3010 	ldr	r3, [fp, #-16]
    83e8:	e59f2078 	ldr	r2, [pc, #120]	; 8468 <main+0xb8>
    83ec:	e5832000 	str	r2, [r3]
    83f0:	e59f2074 	ldr	r2, [pc, #116]	; 846c <main+0xbc>
    83f4:	e24b3018 	sub	r3, fp, #24	; 0x18
    83f8:	e1a00002 	mov	r0, r2
    83fc:	e1a01003 	mov	r1, r3
    8400:	ebffffbd 	bl	82fc <_init+0x44>
    8404:	e59f3064 	ldr	r3, [pc, #100]	; 8470 <main+0xc0>
    8408:	e1a00003 	mov	r0, r3
    840c:	e51b1010 	ldr	r1, [fp, #-16]
    8410:	ebffffb9 	bl	82fc <_init+0x44>
    8414:	e59f2058 	ldr	r2, [pc, #88]	; 8474 <main+0xc4>
    8418:	e51b3018 	ldr	r3, [fp, #-24]
    841c:	e1a00002 	mov	r0, r2
    8420:	e1a01003 	mov	r1, r3
    8424:	ebffffb4 	bl	82fc <_init+0x44>
    8428:	e59f2048 	ldr	r2, [pc, #72]	; 8478 <main+0xc8>
    842c:	e51b3014 	ldr	r3, [fp, #-20]
    8430:	e1a00002 	mov	r0, r2
    8434:	e1a01003 	mov	r1, r3
    8438:	ebffffaf 	bl	82fc <_init+0x44>
    843c:	e59f2038 	ldr	r2, [pc, #56]	; 847c <main+0xcc>
    8440:	e51b3010 	ldr	r3, [fp, #-16]
    8444:	e5933000 	ldr	r3, [r3]
    8448:	e1a00002 	mov	r0, r2
    844c:	e1a01003 	mov	r1, r3
    8450:	ebffffa9 	bl	82fc <_init+0x44>
    8454:	e3a03000 	mov	r3, #0	; 0x0
    8458:	e1a00003 	mov	r0, r3
    845c:	e24bd00c 	sub	sp, fp, #12	; 0xc
    8460:	e89da800 	ldm	sp, {fp, sp, pc}
    8464:	11223344 	.word	0x11223344
    8468:	55667788 	.word	0x55667788
    846c:	000084f8 	.word	0x000084f8
    8470:	00008504 	.word	0x00008504
    8474:	00008510 	.word	0x00008510
    8478:	00008520 	.word	0x00008520
    847c:	00008530 	.word	0x00008530

00008480 <__libc_csu_fini>:
    8480:	e12fff1e 	bx	lr

00008484 <__libc_csu_init>:
    8484:	e92d47f0 	push	{r4, r5, r6, r7, r8, r9, sl, lr}
    8488:	e59fa050 	ldr	sl, [pc, #80]	; 84e0 <__libc_csu_init+0x5c>
    848c:	e59f5050 	ldr	r5, [pc, #80]	; 84e4 <__libc_csu_init+0x60>
    8490:	e1a06000 	mov	r6, r0
    8494:	e1a07001 	mov	r7, r1
    8498:	e1a08002 	mov	r8, r2
    849c:	ebffff85 	bl	82b8 <_init>
    84a0:	e59f3040 	ldr	r3, [pc, #64]	; 84e8 <__libc_csu_init+0x64>
    84a4:	e06a5005 	rsb	r5, sl, r5
    84a8:	e08f3003 	add	r3, pc, r3
    84ac:	e1b05145 	asrs	r5, r5, #2
    84b0:	e083a00a 	add	sl, r3, sl
    84b4:	08bd87f0 	popeq	{r4, r5, r6, r7, r8, r9, sl, pc}
    84b8:	e3a04000 	mov	r4, #0	; 0x0
    84bc:	e79a3104 	ldr	r3, [sl, r4, lsl #2]
    84c0:	e1a00006 	mov	r0, r6
    84c4:	e2844001 	add	r4, r4, #1	; 0x1
    84c8:	e1a01007 	mov	r1, r7
    84cc:	e1a02008 	mov	r2, r8
    84d0:	e12fff33 	blx	r3
    84d4:	e1540005 	cmp	r4, r5
    84d8:	3afffff7 	bcc	84bc <__libc_csu_init+0x38>
    84dc:	e8bd87f0 	pop	{r4, r5, r6, r7, r8, r9, sl, pc}
    84e0:	ffffff0c 	.word	0xffffff0c
    84e4:	ffffff10 	.word	0xffffff10
    84e8:	00008b50 	.word	0x00008b50

Disassembly of section .fini:

000084ec <_fini>:
    84ec:	e92d4010 	push	{r4, lr}
    84f0:	e8bd8010 	pop	{r4, pc}
