
unaligned_rw_arm:     file format elf32-littlearm


Disassembly of section .interp:

00008174 <.interp>:
    8174:	62696c2f 	rsbvs	r6, r9, #12032	; 0x2f00
    8178:	2d646c2f 	stclcs	12, cr6, [r4, #-188]!
    817c:	756e696c 	strbvc	r6, [lr, #-2412]!
    8180:	6f732e78 	svcvs	0x00732e78
    8184:	Address 0x00008184 is out of bounds.


Disassembly of section .note.ABI-tag:

00008188 <.note.ABI-tag>:
    8188:	00000004 	.word	0x00000004
    818c:	00000010 	.word	0x00000010
    8190:	00000001 	.word	0x00000001
    8194:	00554e47 	.word	0x00554e47
    8198:	00000000 	.word	0x00000000
    819c:	00000002 	.word	0x00000002
    81a0:	00000006 	.word	0x00000006
    81a4:	00000015 	.word	0x00000015

Disassembly of section .hash:

000081a8 <.hash>:
    81a8:	00000003 	andeq	r0, r0, r3
    81ac:	00000005 	andeq	r0, r0, r5
    81b0:	00000003 	andeq	r0, r0, r3
    81b4:	00000002 	andeq	r0, r0, r2
    81b8:	00000004 	andeq	r0, r0, r4
	...
    81cc:	00000001 	andeq	r0, r0, r1

Disassembly of section .dynsym:

000081d0 <.dynsym>:
	...
    81e0:	0000001a 	andeq	r0, r0, sl, lsl r0
    81e4:	000082d8 	ldrdeq	r8, [r0], -r8
    81e8:	00000000 	andeq	r0, r0, r0
    81ec:	00000012 	andeq	r0, r0, r2, lsl r0
    81f0:	00000027 	andeq	r0, r0, r7, lsr #32
    81f4:	000082e4 	andeq	r8, r0, r4, ror #5
    81f8:	00000000 	andeq	r0, r0, r0
    81fc:	00000012 	andeq	r0, r0, r2, lsl r0
    8200:	00000001 	andeq	r0, r0, r1
	...
    820c:	00000020 	andeq	r0, r0, r0, lsr #32
    8210:	00000020 	andeq	r0, r0, r0, lsr #32
    8214:	000082fc 	strdeq	r8, [r0], -ip
    8218:	00000000 	andeq	r0, r0, r0
    821c:	00000012 	andeq	r0, r0, r2, lsl r0

Disassembly of section .dynstr:

00008220 <.dynstr>:
    8220:	675f5f00 	ldrbvs	r5, [pc, -r0, lsl #30]
    8224:	5f6e6f6d 	svcpl	0x006e6f6d
    8228:	72617473 	rsbvc	r7, r1, #1929379840	; 0x73000000
    822c:	005f5f74 	subseq	r5, pc, r4, ror pc
    8230:	6362696c 	cmnvs	r2, #1769472	; 0x1b0000
    8234:	2e6f732e 	cdpcs	3, 6, cr7, cr15, cr14, {1}
    8238:	62610036 	rsbvs	r0, r1, #54	; 0x36
    823c:	0074726f 	rsbseq	r7, r4, pc, ror #4
    8240:	6e697270 	mcrvs	2, 3, r7, cr9, cr0, {3}
    8244:	5f006674 	svcpl	0x00006674
    8248:	62696c5f 	rsbvs	r6, r9, #24320	; 0x5f00
    824c:	74735f63 	ldrbtvc	r5, [r3], #-3939
    8250:	5f747261 	svcpl	0x00747261
    8254:	6e69616d 	powvsez	f6, f1, #5.0
    8258:	494c4700 	stmdbmi	ip, {r8, r9, sl, lr}^
    825c:	325f4342 	subscc	r4, pc, #134217729	; 0x8000001
    8260:	Address 0x00008260 is out of bounds.


Disassembly of section .gnu.version:

00008264 <.gnu.version>:
    8264:	00020000 	andeq	r0, r2, r0
    8268:	00000002 	andeq	r0, r0, r2
    826c:	Address 0x0000826c is out of bounds.


Disassembly of section .gnu.version_r:

00008270 <.gnu.version_r>:
    8270:	00010001 	andeq	r0, r1, r1
    8274:	00000010 	andeq	r0, r0, r0, lsl r0
    8278:	00000010 	andeq	r0, r0, r0, lsl r0
    827c:	00000000 	andeq	r0, r0, r0
    8280:	0d696914 	stcleq	9, cr6, [r9, #-80]!
    8284:	00020000 	andeq	r0, r2, r0
    8288:	00000039 	andeq	r0, r0, r9, lsr r0
    828c:	00000000 	andeq	r0, r0, r0

Disassembly of section .rel.dyn:

00008290 <.rel.dyn>:
    8290:	0001101c 	andeq	r1, r1, ip, lsl r0
    8294:	00000315 	andeq	r0, r0, r5, lsl r3

Disassembly of section .rel.plt:

00008298 <.rel.plt>:
    8298:	0001100c 	andeq	r1, r1, ip
    829c:	00000116 	andeq	r0, r0, r6, lsl r1
    82a0:	00011010 	andeq	r1, r1, r0, lsl r0
    82a4:	00000216 	andeq	r0, r0, r6, lsl r2
    82a8:	00011014 	andeq	r1, r1, r4, lsl r0
    82ac:	00000316 	andeq	r0, r0, r6, lsl r3
    82b0:	00011018 	andeq	r1, r1, r8, lsl r0
    82b4:	00000416 	andeq	r0, r0, r6, lsl r4

Disassembly of section .init:

000082b8 <_init>:
    82b8:	e92d4010 	push	{r4, lr}
    82bc:	eb00001f 	bl	8340 <call_gmon_start>
    82c0:	e8bd8010 	pop	{r4, pc}

Disassembly of section .plt:

000082c4 <.plt>:
    82c4:	e52de004 	push	{lr}		; (str lr, [sp, #-4]!)
    82c8:	e59fe004 	ldr	lr, [pc, #4]	; 82d4 <_init+0x1c>
    82cc:	e08fe00e 	add	lr, pc, lr
    82d0:	e5bef008 	ldr	pc, [lr, #8]!
    82d4:	00008d2c 	.word	0x00008d2c
    82d8:	e28fc600 	add	ip, pc, #0	; 0x0
    82dc:	e28cca08 	add	ip, ip, #32768	; 0x8000
    82e0:	e5bcfd2c 	ldr	pc, [ip, #3372]!
    82e4:	e28fc600 	add	ip, pc, #0	; 0x0
    82e8:	e28cca08 	add	ip, ip, #32768	; 0x8000
    82ec:	e5bcfd24 	ldr	pc, [ip, #3364]!
    82f0:	e28fc600 	add	ip, pc, #0	; 0x0
    82f4:	e28cca08 	add	ip, ip, #32768	; 0x8000
    82f8:	e5bcfd1c 	ldr	pc, [ip, #3356]!
    82fc:	e28fc600 	add	ip, pc, #0	; 0x0
    8300:	e28cca08 	add	ip, ip, #32768	; 0x8000
    8304:	e5bcfd14 	ldr	pc, [ip, #3348]!

Disassembly of section .text:

00008308 <_start>:
    8308:	e59fc024 	ldr	ip, [pc, #36]	; 8334 <_start+0x2c>
    830c:	e3a0b000 	mov	fp, #0	; 0x0
    8310:	e49d1004 	pop	{r1}		; (ldr r1, [sp], #4)
    8314:	e1a0200d 	mov	r2, sp
    8318:	e52d2004 	push	{r2}		; (str r2, [sp, #-4]!)
    831c:	e52d0004 	push	{r0}		; (str r0, [sp, #-4]!)
    8320:	e59f0010 	ldr	r0, [pc, #16]	; 8338 <_start+0x30>
    8324:	e59f3010 	ldr	r3, [pc, #16]	; 833c <_start+0x34>
    8328:	e52dc004 	push	{ip}		; (str ip, [sp, #-4]!)
    832c:	ebffffec 	bl	82e4 <_init+0x2c>
    8330:	ebffffe8 	bl	82d8 <_init+0x20>
    8334:	00008480 	.word	0x00008480
    8338:	000083b0 	.word	0x000083b0
    833c:	00008484 	.word	0x00008484

00008340 <call_gmon_start>:
    8340:	e59f3014 	ldr	r3, [pc, #20]	; 835c <call_gmon_start+0x1c>
    8344:	e59f2014 	ldr	r2, [pc, #20]	; 8360 <call_gmon_start+0x20>
    8348:	e08f3003 	add	r3, pc, r3
    834c:	e7932002 	ldr	r2, [r3, r2]
    8350:	e3520000 	cmp	r2, #0	; 0x0
    8354:	012fff1e 	bxeq	lr
    8358:	eaffffe4 	b	82f0 <_init+0x38>
    835c:	00008cb0 	.word	0x00008cb0
    8360:	0000001c 	.word	0x0000001c

00008364 <__do_global_dtors_aux>:
    8364:	e59f3010 	ldr	r3, [pc, #16]	; 837c <__do_global_dtors_aux+0x18>
    8368:	e5d32000 	ldrb	r2, [r3]
    836c:	e3520000 	cmp	r2, #0	; 0x0
    8370:	02822001 	addeq	r2, r2, #1	; 0x1
    8374:	05c32000 	strbeq	r2, [r3]
    8378:	e12fff1e 	bx	lr
    837c:	00011028 	.word	0x00011028

00008380 <frame_dummy>:
    8380:	e59f0020 	ldr	r0, [pc, #32]	; 83a8 <frame_dummy+0x28>
    8384:	e92d4010 	push	{r4, lr}
    8388:	e5903000 	ldr	r3, [r0]
    838c:	e3530000 	cmp	r3, #0	; 0x0
    8390:	08bd8010 	popeq	{r4, pc}
    8394:	e59f3010 	ldr	r3, [pc, #16]	; 83ac <frame_dummy+0x2c>
    8398:	e3530000 	cmp	r3, #0	; 0x0
    839c:	08bd8010 	popeq	{r4, pc}
    83a0:	e12fff33 	blx	r3
    83a4:	e8bd8010 	pop	{r4, pc}
    83a8:	00010f14 	.word	0x00010f14
    83ac:	00000000 	.word	0x00000000

000083b0 <main>:
    83b0:	e1a0c00d 	mov	ip, sp
    83b4:	e92dd800 	push	{fp, ip, lr, pc}
    83b8:	e24cb004 	sub	fp, ip, #4	; 0x4
    83bc:	e24dd010 	sub	sp, sp, #16	; 0x10
    83c0:	e3a03000 	mov	r3, #0	; 0x0
    83c4:	e50b3018 	str	r3, [fp, #-24]
    83c8:	e3a03000 	mov	r3, #0	; 0x0
    83cc:	e50b3014 	str	r3, [fp, #-20]
    83d0:	e24b3018 	sub	r3, fp, #24	; 0x18
    83d4:	e2833001 	add	r3, r3, #1	; 0x1
    83d8:	e50b3010 	str	r3, [fp, #-16]
    83dc:	e59f3080 	ldr	r3, [pc, #128]	; 8464 <main+0xb4>
    83e0:	e50b3018 	str	r3, [fp, #-24]
    83e4:	e51b3010 	ldr	r3, [fp, #-16]
    83e8:	e59f2078 	ldr	r2, [pc, #120]	; 8468 <main+0xb8>
    83ec:	e5832000 	str	r2, [r3]
    83f0:	e59f2074 	ldr	r2, [pc, #116]	; 846c <main+0xbc>
    83f4:	e24b3018 	sub	r3, fp, #24	; 0x18
    83f8:	e1a00002 	mov	r0, r2
    83fc:	e1a01003 	mov	r1, r3
    8400:	ebffffbd 	bl	82fc <_init+0x44>
    8404:	e59f3064 	ldr	r3, [pc, #100]	; 8470 <main+0xc0>
    8408:	e1a00003 	mov	r0, r3
    840c:	e51b1010 	ldr	r1, [fp, #-16]
    8410:	ebffffb9 	bl	82fc <_init+0x44>
    8414:	e59f2058 	ldr	r2, [pc, #88]	; 8474 <main+0xc4>
    8418:	e51b3018 	ldr	r3, [fp, #-24]
    841c:	e1a00002 	mov	r0, r2
    8420:	e1a01003 	mov	r1, r3
    8424:	ebffffb4 	bl	82fc <_init+0x44>
    8428:	e59f2048 	ldr	r2, [pc, #72]	; 8478 <main+0xc8>
    842c:	e51b3014 	ldr	r3, [fp, #-20]
    8430:	e1a00002 	mov	r0, r2
    8434:	e1a01003 	mov	r1, r3
    8438:	ebffffaf 	bl	82fc <_init+0x44>
    843c:	e59f2038 	ldr	r2, [pc, #56]	; 847c <main+0xcc>
    8440:	e51b3010 	ldr	r3, [fp, #-16]
    8444:	e5933000 	ldr	r3, [r3]
    8448:	e1a00002 	mov	r0, r2
    844c:	e1a01003 	mov	r1, r3
    8450:	ebffffa9 	bl	82fc <_init+0x44>
    8454:	e3a03000 	mov	r3, #0	; 0x0
    8458:	e1a00003 	mov	r0, r3
    845c:	e24bd00c 	sub	sp, fp, #12	; 0xc
    8460:	e89da800 	ldm	sp, {fp, sp, pc}
    8464:	11223344 	.word	0x11223344
    8468:	55667788 	.word	0x55667788
    846c:	000084f8 	.word	0x000084f8
    8470:	00008504 	.word	0x00008504
    8474:	00008510 	.word	0x00008510
    8478:	00008520 	.word	0x00008520
    847c:	00008530 	.word	0x00008530

00008480 <__libc_csu_fini>:
    8480:	e12fff1e 	bx	lr

00008484 <__libc_csu_init>:
    8484:	e92d47f0 	push	{r4, r5, r6, r7, r8, r9, sl, lr}
    8488:	e59fa050 	ldr	sl, [pc, #80]	; 84e0 <__libc_csu_init+0x5c>
    848c:	e59f5050 	ldr	r5, [pc, #80]	; 84e4 <__libc_csu_init+0x60>
    8490:	e1a06000 	mov	r6, r0
    8494:	e1a07001 	mov	r7, r1
    8498:	e1a08002 	mov	r8, r2
    849c:	ebffff85 	bl	82b8 <_init>
    84a0:	e59f3040 	ldr	r3, [pc, #64]	; 84e8 <__libc_csu_init+0x64>
    84a4:	e06a5005 	rsb	r5, sl, r5
    84a8:	e08f3003 	add	r3, pc, r3
    84ac:	e1b05145 	asrs	r5, r5, #2
    84b0:	e083a00a 	add	sl, r3, sl
    84b4:	08bd87f0 	popeq	{r4, r5, r6, r7, r8, r9, sl, pc}
    84b8:	e3a04000 	mov	r4, #0	; 0x0
    84bc:	e79a3104 	ldr	r3, [sl, r4, lsl #2]
    84c0:	e1a00006 	mov	r0, r6
    84c4:	e2844001 	add	r4, r4, #1	; 0x1
    84c8:	e1a01007 	mov	r1, r7
    84cc:	e1a02008 	mov	r2, r8
    84d0:	e12fff33 	blx	r3
    84d4:	e1540005 	cmp	r4, r5
    84d8:	3afffff7 	bcc	84bc <__libc_csu_init+0x38>
    84dc:	e8bd87f0 	pop	{r4, r5, r6, r7, r8, r9, sl, pc}
    84e0:	ffffff0c 	.word	0xffffff0c
    84e4:	ffffff10 	.word	0xffffff10
    84e8:	00008b50 	.word	0x00008b50

Disassembly of section .fini:

000084ec <_fini>:
    84ec:	e92d4010 	push	{r4, lr}
    84f0:	e8bd8010 	pop	{r4, pc}

Disassembly of section .rodata:

000084f4 <_IO_stdin_used>:
    84f4:	00020001 	.word	0x00020001
    84f8:	72617626 	.word	0x72617626
    84fc:	25203d20 	.word	0x25203d20
    8500:	00000a70 	.word	0x00000a70
    8504:	746e6970 	.word	0x746e6970
    8508:	25203d20 	.word	0x25203d20
    850c:	00000a70 	.word	0x00000a70
    8510:	5b726176 	.word	0x5b726176
    8514:	3d205d30 	.word	0x3d205d30
    8518:	38302520 	.word	0x38302520
    851c:	00000a78 	.word	0x00000a78
    8520:	5b726176 	.word	0x5b726176
    8524:	3d205d31 	.word	0x3d205d31
    8528:	38302520 	.word	0x38302520
    852c:	00000a78 	.word	0x00000a78
    8530:	6e69702a 	.word	0x6e69702a
    8534:	203d2074 	.word	0x203d2074
    8538:	78383025 	.word	0x78383025
    853c:	0000000a 	.word	0x0000000a

Disassembly of section .ARM.exidx:

00008540 <.ARM.exidx>:
    8540:	7ffffdc8 	svcvc	0x00fffdc8
    8544:	00000001 	andeq	r0, r0, r1

Disassembly of section .eh_frame:

00008548 <__FRAME_END__>:
    8548:	00000000 	.word	0x00000000

Disassembly of section .init_array:

00010f0c <__frame_dummy_init_array_entry>:
   10f0c:	00008380 	.word	0x00008380

Disassembly of section .fini_array:

00010f10 <__do_global_dtors_aux_fini_array_entry>:
   10f10:	00008364 	.word	0x00008364

Disassembly of section .jcr:

00010f14 <__JCR_END__>:
   10f14:	00000000 	.word	0x00000000

Disassembly of section .dynamic:

00010f18 <_DYNAMIC>:
   10f18:	00000001 	.word	0x00000001
   10f1c:	00000010 	.word	0x00000010
   10f20:	0000000c 	.word	0x0000000c
   10f24:	000082b8 	.word	0x000082b8
   10f28:	0000000d 	.word	0x0000000d
   10f2c:	000084ec 	.word	0x000084ec
   10f30:	00000019 	.word	0x00000019
   10f34:	00010f0c 	.word	0x00010f0c
   10f38:	0000001b 	.word	0x0000001b
   10f3c:	00000004 	.word	0x00000004
   10f40:	0000001a 	.word	0x0000001a
   10f44:	00010f10 	.word	0x00010f10
   10f48:	0000001c 	.word	0x0000001c
   10f4c:	00000004 	.word	0x00000004
   10f50:	00000004 	.word	0x00000004
   10f54:	000081a8 	.word	0x000081a8
   10f58:	00000005 	.word	0x00000005
   10f5c:	00008220 	.word	0x00008220
   10f60:	00000006 	.word	0x00000006
   10f64:	000081d0 	.word	0x000081d0
   10f68:	0000000a 	.word	0x0000000a
   10f6c:	00000043 	.word	0x00000043
   10f70:	0000000b 	.word	0x0000000b
   10f74:	00000010 	.word	0x00000010
   10f78:	00000015 	.word	0x00000015
   10f7c:	00000000 	.word	0x00000000
   10f80:	00000003 	.word	0x00000003
   10f84:	00011000 	.word	0x00011000
   10f88:	00000002 	.word	0x00000002
   10f8c:	00000020 	.word	0x00000020
   10f90:	00000014 	.word	0x00000014
   10f94:	00000011 	.word	0x00000011
   10f98:	00000017 	.word	0x00000017
   10f9c:	00008298 	.word	0x00008298
   10fa0:	00000011 	.word	0x00000011
   10fa4:	00008290 	.word	0x00008290
   10fa8:	00000012 	.word	0x00000012
   10fac:	00000008 	.word	0x00000008
   10fb0:	00000013 	.word	0x00000013
   10fb4:	00000008 	.word	0x00000008
   10fb8:	6ffffffe 	.word	0x6ffffffe
   10fbc:	00008270 	.word	0x00008270
   10fc0:	6fffffff 	.word	0x6fffffff
   10fc4:	00000001 	.word	0x00000001
   10fc8:	6ffffff0 	.word	0x6ffffff0
   10fcc:	00008264 	.word	0x00008264
	...

Disassembly of section .got:

00011000 <_GLOBAL_OFFSET_TABLE_>:
   11000:	00010f18 	.word	0x00010f18
	...
   1100c:	000082c4 	.word	0x000082c4
   11010:	000082c4 	.word	0x000082c4
   11014:	000082c4 	.word	0x000082c4
   11018:	000082c4 	.word	0x000082c4
   1101c:	00000000 	.word	0x00000000

Disassembly of section .data:

00011020 <__data_start>:
   11020:	00000000 	.word	0x00000000

00011024 <__dso_handle>:
   11024:	00000000 	.word	0x00000000

Disassembly of section .bss:

00011028 <completed.6538>:
   11028:	00000000 	.word	0x00000000

Disassembly of section .comment:

00000000 <.comment>:
   0:	43434700 	movtmi	r4, #14080	; 0x3700
   4:	6328203a 	teqvs	r8, #58	; 0x3a
   8:	73736f72 	cmnvc	r3, #456	; 0x1c8
   c:	6c6f6f74 	stclvs	15, cr6, [pc], #-464
  10:	20474e2d 	subcs	r4, r7, sp, lsr #28
  14:	33312e31 	teqcc	r1, #784	; 0x310
  18:	2029332e 	eorcs	r3, r9, lr, lsr #6
  1c:	2e342e34 	mrccs	14, 1, r2, cr4, cr4, {1}
  20:	47000036 	smladxmi	r0, r6, r0, r0
  24:	203a4343 	eorscs	r4, sl, r3, asr #6
  28:	6f726328 	svcvs	0x00726328
  2c:	6f747373 	svcvs	0x00747373
  30:	4e2d6c6f 	cdpmi	12, 2, cr6, cr13, cr15, {3}
  34:	2e312047 	cdpcs	0, 3, cr2, cr1, cr7, {2}
  38:	332e3331 	teqcc	lr, #-1006632960	; 0xc4000000
  3c:	2e342029 	cdpcs	0, 3, cr2, cr4, cr9, {1}
  40:	00362e34 	eorseq	r2, r6, r4, lsr lr
  44:	43434700 	movtmi	r4, #14080	; 0x3700
  48:	6328203a 	teqvs	r8, #58	; 0x3a
  4c:	73736f72 	cmnvc	r3, #456	; 0x1c8
  50:	6c6f6f74 	stclvs	15, cr6, [pc], #-464
  54:	20474e2d 	subcs	r4, r7, sp, lsr #28
  58:	33312e31 	teqcc	r1, #784	; 0x310
  5c:	2029332e 	eorcs	r3, r9, lr, lsr #6
  60:	2e342e34 	mrccs	14, 1, r2, cr4, cr4, {1}
  64:	47000036 	smladxmi	r0, r6, r0, r0
  68:	203a4343 	eorscs	r4, sl, r3, asr #6
  6c:	6f726328 	svcvs	0x00726328
  70:	6f747373 	svcvs	0x00747373
  74:	4e2d6c6f 	cdpmi	12, 2, cr6, cr13, cr15, {3}
  78:	2e312047 	cdpcs	0, 3, cr2, cr1, cr7, {2}
  7c:	332e3331 	teqcc	lr, #-1006632960	; 0xc4000000
  80:	2e342029 	cdpcs	0, 3, cr2, cr4, cr9, {1}
  84:	00362e34 	eorseq	r2, r6, r4, lsr lr
  88:	43434700 	movtmi	r4, #14080	; 0x3700
  8c:	6328203a 	teqvs	r8, #58	; 0x3a
  90:	73736f72 	cmnvc	r3, #456	; 0x1c8
  94:	6c6f6f74 	stclvs	15, cr6, [pc], #-464
  98:	20474e2d 	subcs	r4, r7, sp, lsr #28
  9c:	33312e31 	teqcc	r1, #784	; 0x310
  a0:	2029332e 	eorcs	r3, r9, lr, lsr #6
  a4:	2e342e34 	mrccs	14, 1, r2, cr4, cr4, {1}
  a8:	47000036 	smladxmi	r0, r6, r0, r0
  ac:	203a4343 	eorscs	r4, sl, r3, asr #6
  b0:	6f726328 	svcvs	0x00726328
  b4:	6f747373 	svcvs	0x00747373
  b8:	4e2d6c6f 	cdpmi	12, 2, cr6, cr13, cr15, {3}
  bc:	2e312047 	cdpcs	0, 3, cr2, cr1, cr7, {2}
  c0:	332e3331 	teqcc	lr, #-1006632960	; 0xc4000000
  c4:	2e342029 	cdpcs	0, 3, cr2, cr4, cr9, {1}
  c8:	00362e34 	eorseq	r2, r6, r4, lsr lr
  cc:	43434700 	movtmi	r4, #14080	; 0x3700
  d0:	6328203a 	teqvs	r8, #58	; 0x3a
  d4:	73736f72 	cmnvc	r3, #456	; 0x1c8
  d8:	6c6f6f74 	stclvs	15, cr6, [pc], #-464
  dc:	20474e2d 	subcs	r4, r7, sp, lsr #28
  e0:	33312e31 	teqcc	r1, #784	; 0x310
  e4:	2029332e 	eorcs	r3, r9, lr, lsr #6
  e8:	2e342e34 	mrccs	14, 1, r2, cr4, cr4, {1}
  ec:	Address 0x000000ec is out of bounds.


Disassembly of section .ARM.attributes:

00000000 <.ARM.attributes>:
   0:	00002f41 	andeq	r2, r0, r1, asr #30
   4:	61656100 	cmnvs	r5, r0, lsl #2
   8:	01006962 	tsteq	r0, r2, ror #18
   c:	00000025 	andeq	r0, r0, r5, lsr #32
  10:	4d524105 	ldfmie	f4, [r2, #-20]
  14:	45363239 	ldrmi	r3, [r6, #-569]!
  18:	00532d4a 	subseq	r2, r3, sl, asr #26
  1c:	01080506 	tsteq	r8, r6, lsl #10
  20:	04120109 	ldreq	r0, [r2], #-265
  24:	01150114 	tsteq	r5, r4, lsl r1
  28:	01180317 	tsteq	r8, r7, lsl r3
  2c:	021a0119 	andseq	r0, sl, #1073741830	; 0x40000006
