
unaligned.ko:     file format elf32-littlearm


Disassembly of section .text:

00000000 <init_module>:
   0:	e1a0c00d 	mov	ip, sp
   4:	e92dd800 	push	{fp, ip, lr, pc}
   8:	e24cb004 	sub	fp, ip, #4	; 0x4
   c:	e3a00000 	mov	r0, #0	; 0x0
  10:	e89da800 	ldm	sp, {fp, sp, pc}

00000014 <cleanup_module>:
  14:	e1a0c00d 	mov	ip, sp
  18:	e92dd810 	push	{r4, fp, ip, lr, pc}
  1c:	e24cb004 	sub	fp, ip, #4	; 0x4
  20:	e24dd00c 	sub	sp, sp, #12	; 0xc
  24:	e3a03000 	mov	r3, #0	; 0x0
  28:	e50b3018 	str	r3, [fp, #-24]
  2c:	e59f3054 	ldr	r3, [pc, #84]	; 88 <cleanup_module+0x74>
  30:	e24b401c 	sub	r4, fp, #28	; 0x1c
  34:	e50b301c 	str	r3, [fp, #-28]
  38:	e59f304c 	ldr	r3, [pc, #76]	; 8c <cleanup_module+0x78>
  3c:	e1a01004 	mov	r1, r4
  40:	e59f0048 	ldr	r0, [pc, #72]	; 90 <cleanup_module+0x7c>
  44:	e2844001 	add	r4, r4, #1	; 0x1
  48:	e50b301b 	str	r3, [fp, #-27]
  4c:	ebfffffe 	bl	0 <printk>
  50:	e1a01004 	mov	r1, r4
  54:	e59f0038 	ldr	r0, [pc, #56]	; 94 <cleanup_module+0x80>
  58:	ebfffffe 	bl	0 <printk>
  5c:	e51b101c 	ldr	r1, [fp, #-28]
  60:	e59f0030 	ldr	r0, [pc, #48]	; 98 <cleanup_module+0x84>
  64:	ebfffffe 	bl	0 <printk>
  68:	e51b1018 	ldr	r1, [fp, #-24]
  6c:	e59f0028 	ldr	r0, [pc, #40]	; 9c <cleanup_module+0x88>
  70:	ebfffffe 	bl	0 <printk>
  74:	e51b101b 	ldr	r1, [fp, #-27]
  78:	e59f0020 	ldr	r0, [pc, #32]	; a0 <cleanup_module+0x8c>
  7c:	ebfffffe 	bl	0 <printk>
  80:	e24bd010 	sub	sp, fp, #16	; 0x10
  84:	e89da810 	ldm	sp, {r4, fp, sp, pc}
  88:	11223344 	.word	0x11223344
  8c:	55667788 	.word	0x55667788
  90:	00000000 	.word	0x00000000
  94:	0000000b 	.word	0x0000000b
  98:	00000016 	.word	0x00000016
  9c:	00000025 	.word	0x00000025
  a0:	00000034 	.word	0x00000034

Disassembly of section .modinfo:

00000000 <__mod_license37>:
   0:	6563696c 	strbvs	r6, [r3, #-2412]!
   4:	3d65736e 	stclcc	3, cr7, [r5, #-440]!
   8:	004c5047 	subeq	r5, ip, r7, asr #32

0000000c <__module_depends>:
   c:	65706564 	.word	0x65706564
  10:	3d73646e 	.word	0x3d73646e
  14:	6c697562 	.word	0x6c697562
  18:	6e692d74 	.word	0x6e692d74
  1c:	00000000 	.word	0x00000000

00000020 <__mod_vermagic5>:
  20:	6d726576 	cfldr64vs	mvdx6, [r2, #-472]!
  24:	63696761 	cmnvs	r9, #25427968	; 0x1840000
  28:	362e323d 	undefined
  2c:	2d32322e 	lfmcs	f3, 4, [r2, #-184]!
  30:	33666567 	cmncc	r6, #432013312	; 0x19c00000
  34:	39656537 	stmdbcc	r5!, {r0, r1, r2, r4, r5, r8, sl, sp, lr}^
  38:	69642d61 	stmdbvs	r4!, {r0, r5, r6, r8, sl, fp, sp}^
  3c:	20797472 	rsbscs	r7, r9, r2, ror r4
  40:	5f646f6d 	svcpl	0x00646f6d
  44:	6f6c6e75 	svcvs	0x006c6e75
  48:	41206461 	teqmi	r0, r1, ror #8
  4c:	34764d52 	ldrbtcc	r4, [r6], #-3410
  50:	00000020 	andeq	r0, r0, r0, lsr #32
